; Function Attrs: mustprogress nofree norecurse nosync nounwind willreturn memory(none) uwtable
define noundef i32 @_ZN10OpenSubdiv6v3_6_03Bfr4quad25countNonUniformEdgeFacetsEii(i32 noundef %0, i32 noundef %1) local_unnamed_addr #4 align 2 {
  %3 = add nsw i32 %1, -2
  %.sroa.speculated = tail call i32 @llvm.smax.i32(i32 %0, i32 %3)
  %4 = and i32 %.sroa.speculated, 1
  %5 = icmp eq i32 %4, 0
  %6 = or i32 %1, %0
  %7 = and i32 %6, 1
  %8 = select i1 %5, i32 %7, i32 0
  %.0 = or disjoint i32 %8, %.sroa.speculated
  ret i32 %.0
}